; Function Attrs: mustprogress uwtable
define internal fastcc noundef range(i32 -1, 1) i32 @_ZL39do_setsockopt_string_allow_empty_strictPKvmPNSt7__cxx1112basic_stringIcSt11char_traitsIcESaIcEEEm(ptr noundef %0, i64 noundef %1, ptr noundef nonnull %2, i64 noundef range(i64 -1, 256) %3) unnamed_addr #6 personality ptr @__gxx_personality_v0 {
  %5 = icmp eq ptr %0, null
  %6 = icmp eq i64 %1, 0
  %or.cond = and i1 %5, %6
  br i1 %or.cond, label %7, label %10

7:                                                ; preds = %4
  %8 = getelementptr inbounds nuw i8, ptr %2, i64 8
  store i64 0, ptr %8, align 8, !tbaa !3
  %9 = load ptr, ptr %2, align 8, !tbaa !14
  store i8 0, ptr %9, align 1, !tbaa !73
  br label %19

10:                                               ; preds = %4
  %11 = add i64 %1, -1
  %12 = icmp uge i64 %11, %3
  %or.cond15 = or i1 %5, %12
  br i1 %or.cond15, label %17, label %13

13:                                               ; preds = %10
  %14 = getelementptr inbounds nuw i8, ptr %2, i64 8
  %15 = load i64, ptr %14, align 8, !tbaa !3
  %16 = tail call noundef nonnull align 8 dereferenceable(32) ptr @_ZNSt7__cxx1112basic_stringIcSt11char_traitsIcESaIcEE10_M_replaceEmmPKcm(ptr noundef nonnull align 8 dereferenceable(32) %2, i64 noundef 0, i64 noundef %15, ptr noundef nonnull %0, i64 noundef %1)
  br label %19

17:                                               ; preds = %10
  %18 = tail call ptr @__errno_location() #22
  store i32 22, ptr %18, align 4, !tbaa !12
  br label %19

19:                                               ; preds = %17, %13, %7
  %.0 = phi i32 [ 0, %7 ], [ 0, %13 ], [ -1, %17 ]
  ret i32 %.0
}